target datalayout = "e-m:e-p270:32:32-p271:32:32-p272:64:64-i64:64-i128:128-f80:128-n8:16:32:64-S128"
target triple = "x86_64-pc-linux-gnu"

%"struct.Luau::Location" = type { %"struct.Luau::Position", %"struct.Luau::Position" }
%"struct.Luau::Position" = type { i32, i32 }
%"class.std::__cxx11::basic_string" = type { %"struct.std::__cxx11::basic_string<char>::_Alloc_hider", i64, %union.anon }
%"struct.std::__cxx11::basic_string<char>::_Alloc_hider" = type { ptr }
%union.anon = type { i64, [8 x i8] }
%struct.__va_list_tag = type { i32, i32, ptr, ptr }
%"class.std::vector" = type { %"struct.std::_Vector_base" }
%"struct.std::_Vector_base" = type { %"struct.std::_Vector_base<Luau::ParseError, std::allocator<Luau::ParseError>>::_Vector_impl" }
%"struct.std::_Vector_base<Luau::ParseError, std::allocator<Luau::ParseError>>::_Vector_impl" = type { %"struct.std::_Vector_base<Luau::ParseError, std::allocator<Luau::ParseError>>::_Vector_impl_data" }
%"struct.std::_Vector_base<Luau::ParseError, std::allocator<Luau::ParseError>>::_Vector_impl_data" = type { ptr, ptr, ptr }
%"class.std::vector.4" = type { %"struct.std::_Vector_base.5" }
%"struct.std::_Vector_base.5" = type { %"struct.std::_Vector_base<Luau::HotComment, std::allocator<Luau::HotComment>>::_Vector_impl" }
%"struct.std::_Vector_base<Luau::HotComment, std::allocator<Luau::HotComment>>::_Vector_impl" = type { %"struct.std::_Vector_base<Luau::HotComment, std::allocator<Luau::HotComment>>::_Vector_impl_data" }
%"struct.std::_Vector_base<Luau::HotComment, std::allocator<Luau::HotComment>>::_Vector_impl_data" = type { ptr, ptr, ptr }
%"class.std::vector.9" = type { %"struct.std::_Vector_base.10" }
%"struct.std::_Vector_base.10" = type { %"struct.std::_Vector_base<Luau::Comment, std::allocator<Luau::Comment>>::_Vector_impl" }
%"struct.std::_Vector_base<Luau::Comment, std::allocator<Luau::Comment>>::_Vector_impl" = type { %"struct.std::_Vector_base<Luau::Comment, std::allocator<Luau::Comment>>::_Vector_impl_data" }
%"struct.std::_Vector_base<Luau::Comment, std::allocator<Luau::Comment>>::_Vector_impl_data" = type { ptr, ptr, ptr }
%"class.Luau::DenseHashMap" = type { %"class.Luau::detail::DenseHashTable" }
%"class.Luau::detail::DenseHashTable" = type <{ ptr, i64, i64, ptr, [8 x i8] }>
%"class.Luau::Parser" = type { %"struct.Luau::ParseOptions", %"class.Luau::Lexer", ptr, %"class.std::vector.9", %"class.std::vector.4", i8, i32, %"struct.Luau::AstName", %"struct.Luau::AstName", %"struct.Luau::AstName", %"struct.Luau::AstName", %"struct.Luau::Parser::MatchLexeme", %"class.std::vector.30", i64, %"class.Luau::DenseHashMap.15", %"class.std::vector.18", %"class.std::vector", %"class.std::vector.35", %"class.std::vector.40", %"class.std::vector.45", %"class.std::vector.50", %"class.std::vector.50", %"class.std::vector.55", %"class.std::vector.55", %"class.std::vector.60", %"class.std::vector.60", %"class.std::vector.65", %"class.std::vector.18", %"class.std::vector.70", %"class.std::vector.75", %"class.std::vector.80", %"class.std::vector.85", %"class.std::vector.90", %"class.std::vector.95", %"class.std::vector.100", %"class.std::vector.105", %"class.std::vector.110", %"class.std::vector.115", %"class.std::vector.120", %"class.std::vector.125", %"class.std::__cxx11::basic_string", %"class.Luau::DenseHashMap" }
%"struct.Luau::ParseOptions" = type { i8, i8, [6 x i8], %"class.std::optional", i8, i8, [6 x i8] }
%"class.std::optional" = type { %"struct.std::_Optional_base" }
%"struct.std::_Optional_base" = type { %"struct.std::_Optional_payload" }
%"struct.std::_Optional_payload" = type { %"struct.std::_Optional_payload.base", [7 x i8] }
%"struct.std::_Optional_payload.base" = type { %"struct.std::_Optional_payload_base.base" }
%"struct.std::_Optional_payload_base.base" = type <{ %"union.std::_Optional_payload_base<Luau::FragmentParseResumeSettings>::_Storage", i8 }>
%"union.std::_Optional_payload_base<Luau::FragmentParseResumeSettings>::_Storage" = type { %"struct.Luau::FragmentParseResumeSettings" }
%"struct.Luau::FragmentParseResumeSettings" = type { %"class.Luau::DenseHashMap.15", %"class.std::vector.18", %"struct.Luau::Position" }
%"class.Luau::Lexer" = type { ptr, i64, i32, i32, i32, %"struct.Luau::Lexeme", %"struct.Luau::Location", ptr, i8, i8, %"class.std::vector.25" }
%"struct.Luau::Lexeme" = type { i32, %"struct.Luau::Location", i32, %union.anon.24 }
%union.anon.24 = type { ptr }
%"class.std::vector.25" = type { %"struct.std::_Vector_base.26" }
%"struct.std::_Vector_base.26" = type { %"struct.std::_Vector_base<Luau::Lexer::BraceType, std::allocator<Luau::Lexer::BraceType>>::_Vector_impl" }
%"struct.std::_Vector_base<Luau::Lexer::BraceType, std::allocator<Luau::Lexer::BraceType>>::_Vector_impl" = type { %"struct.std::_Vector_base<Luau::Lexer::BraceType, std::allocator<Luau::Lexer::BraceType>>::_Vector_impl_data" }
%"struct.std::_Vector_base<Luau::Lexer::BraceType, std::allocator<Luau::Lexer::BraceType>>::_Vector_impl_data" = type { ptr, ptr, ptr }
%"struct.Luau::AstName" = type { ptr }
%"struct.Luau::Parser::MatchLexeme" = type { i32, %"struct.Luau::Position" }
%"class.std::vector.30" = type { %"struct.std::_Vector_base.31" }
%"struct.std::_Vector_base.31" = type { %"struct.std::_Vector_base<Luau::Parser::Function, std::allocator<Luau::Parser::Function>>::_Vector_impl" }
%"struct.std::_Vector_base<Luau::Parser::Function, std::allocator<Luau::Parser::Function>>::_Vector_impl" = type { %"struct.std::_Vector_base<Luau::Parser::Function, std::allocator<Luau::Parser::Function>>::_Vector_impl_data" }
%"struct.std::_Vector_base<Luau::Parser::Function, std::allocator<Luau::Parser::Function>>::_Vector_impl_data" = type { ptr, ptr, ptr }
%"class.Luau::DenseHashMap.15" = type { %"class.Luau::detail::DenseHashTable.16" }
%"class.Luau::detail::DenseHashTable.16" = type <{ ptr, i64, i64, %"struct.Luau::AstName", [8 x i8] }>
%"class.std::vector.35" = type { %"struct.std::_Vector_base.36" }
%"struct.std::_Vector_base.36" = type { %"struct.std::_Vector_base<unsigned int, std::allocator<unsigned int>>::_Vector_impl" }
%"struct.std::_Vector_base<unsigned int, std::allocator<unsigned int>>::_Vector_impl" = type { %"struct.std::_Vector_base<unsigned int, std::allocator<unsigned int>>::_Vector_impl_data" }
%"struct.std::_Vector_base<unsigned int, std::allocator<unsigned int>>::_Vector_impl_data" = type { ptr, ptr, ptr }
%"class.std::vector.40" = type { %"struct.std::_Vector_base.41" }
%"struct.std::_Vector_base.41" = type { %"struct.std::_Vector_base<Luau::AstAttr *, std::allocator<Luau::AstAttr *>>::_Vector_impl" }
%"struct.std::_Vector_base<Luau::AstAttr *, std::allocator<Luau::AstAttr *>>::_Vector_impl" = type { %"struct.std::_Vector_base<Luau::AstAttr *, std::allocator<Luau::AstAttr *>>::_Vector_impl_data" }
%"struct.std::_Vector_base<Luau::AstAttr *, std::allocator<Luau::AstAttr *>>::_Vector_impl_data" = type { ptr, ptr, ptr }
%"class.std::vector.45" = type { %"struct.std::_Vector_base.46" }
%"struct.std::_Vector_base.46" = type { %"struct.std::_Vector_base<Luau::AstStat *, std::allocator<Luau::AstStat *>>::_Vector_impl" }
%"struct.std::_Vector_base<Luau::AstStat *, std::allocator<Luau::AstStat *>>::_Vector_impl" = type { %"struct.std::_Vector_base<Luau::AstStat *, std::allocator<Luau::AstStat *>>::_Vector_impl_data" }
%"struct.std::_Vector_base<Luau::AstStat *, std::allocator<Luau::AstStat *>>::_Vector_impl_data" = type { ptr, ptr, ptr }
%"class.std::vector.50" = type { %"struct.std::_Vector_base.51" }
%"struct.std::_Vector_base.51" = type { %"struct.std::_Vector_base<Luau::AstArray<char>, std::allocator<Luau::AstArray<char>>>::_Vector_impl" }
%"struct.std::_Vector_base<Luau::AstArray<char>, std::allocator<Luau::AstArray<char>>>::_Vector_impl" = type { %"struct.std::_Vector_base<Luau::AstArray<char>, std::allocator<Luau::AstArray<char>>>::_Vector_impl_data" }
%"struct.std::_Vector_base<Luau::AstArray<char>, std::allocator<Luau::AstArray<char>>>::_Vector_impl_data" = type { ptr, ptr, ptr }
%"class.std::vector.55" = type { %"struct.std::_Vector_base.56" }
%"struct.std::_Vector_base.56" = type { %"struct.std::_Vector_base<Luau::AstExpr *, std::allocator<Luau::AstExpr *>>::_Vector_impl" }
%"struct.std::_Vector_base<Luau::AstExpr *, std::allocator<Luau::AstExpr *>>::_Vector_impl" = type { %"struct.std::_Vector_base<Luau::AstExpr *, std::allocator<Luau::AstExpr *>>::_Vector_impl_data" }
%"struct.std::_Vector_base<Luau::AstExpr *, std::allocator<Luau::AstExpr *>>::_Vector_impl_data" = type { ptr, ptr, ptr }
%"class.std::vector.60" = type { %"struct.std::_Vector_base.61" }
%"struct.std::_Vector_base.61" = type { %"struct.std::_Vector_base<Luau::AstName, std::allocator<Luau::AstName>>::_Vector_impl" }
%"struct.std::_Vector_base<Luau::AstName, std::allocator<Luau::AstName>>::_Vector_impl" = type { %"struct.std::_Vector_base<Luau::AstName, std::allocator<Luau::AstName>>::_Vector_impl_data" }
%"struct.std::_Vector_base<Luau::AstName, std::allocator<Luau::AstName>>::_Vector_impl_data" = type { ptr, ptr, ptr }
%"class.std::vector.65" = type { %"struct.std::_Vector_base.66" }
%"struct.std::_Vector_base.66" = type { %"struct.std::_Vector_base<Luau::Parser::Binding, std::allocator<Luau::Parser::Binding>>::_Vector_impl" }
%"struct.std::_Vector_base<Luau::Parser::Binding, std::allocator<Luau::Parser::Binding>>::_Vector_impl" = type { %"struct.std::_Vector_base<Luau::Parser::Binding, std::allocator<Luau::Parser::Binding>>::_Vector_impl_data" }
%"struct.std::_Vector_base<Luau::Parser::Binding, std::allocator<Luau::Parser::Binding>>::_Vector_impl_data" = type { ptr, ptr, ptr }
%"class.std::vector.18" = type { %"struct.std::_Vector_base.19" }
%"struct.std::_Vector_base.19" = type { %"struct.std::_Vector_base<Luau::AstLocal *, std::allocator<Luau::AstLocal *>>::_Vector_impl" }
%"struct.std::_Vector_base<Luau::AstLocal *, std::allocator<Luau::AstLocal *>>::_Vector_impl" = type { %"struct.std::_Vector_base<Luau::AstLocal *, std::allocator<Luau::AstLocal *>>::_Vector_impl_data" }
%"struct.std::_Vector_base<Luau::AstLocal *, std::allocator<Luau::AstLocal *>>::_Vector_impl_data" = type { ptr, ptr, ptr }
%"class.std::vector.70" = type { %"struct.std::_Vector_base.71" }
%"struct.std::_Vector_base.71" = type { %"struct.std::_Vector_base<Luau::AstTableProp, std::allocator<Luau::AstTableProp>>::_Vector_impl" }
%"struct.std::_Vector_base<Luau::AstTableProp, std::allocator<Luau::AstTableProp>>::_Vector_impl" = type { %"struct.std::_Vector_base<Luau::AstTableProp, std::allocator<Luau::AstTableProp>>::_Vector_impl_data" }
%"struct.std::_Vector_base<Luau::AstTableProp, std::allocator<Luau::AstTableProp>>::_Vector_impl_data" = type { ptr, ptr, ptr }
%"class.std::vector.75" = type { %"struct.std::_Vector_base.76" }
%"struct.std::_Vector_base.76" = type { %"struct.std::_Vector_base<Luau::CstTypeTable::Item, std::allocator<Luau::CstTypeTable::Item>>::_Vector_impl" }
%"struct.std::_Vector_base<Luau::CstTypeTable::Item, std::allocator<Luau::CstTypeTable::Item>>::_Vector_impl" = type { %"struct.std::_Vector_base<Luau::CstTypeTable::Item, std::allocator<Luau::CstTypeTable::Item>>::_Vector_impl_data" }
%"struct.std::_Vector_base<Luau::CstTypeTable::Item, std::allocator<Luau::CstTypeTable::Item>>::_Vector_impl_data" = type { ptr, ptr, ptr }
%"class.std::vector.80" = type { %"struct.std::_Vector_base.81" }
%"struct.std::_Vector_base.81" = type { %"struct.std::_Vector_base<Luau::AstType *, std::allocator<Luau::AstType *>>::_Vector_impl" }
%"struct.std::_Vector_base<Luau::AstType *, std::allocator<Luau::AstType *>>::_Vector_impl" = type { %"struct.std::_Vector_base<Luau::AstType *, std::allocator<Luau::AstType *>>::_Vector_impl_data" }
%"struct.std::_Vector_base<Luau::AstType *, std::allocator<Luau::AstType *>>::_Vector_impl_data" = type { ptr, ptr, ptr }
%"class.std::vector.85" = type { %"struct.std::_Vector_base.86" }
%"struct.std::_Vector_base.86" = type { %"struct.std::_Vector_base<Luau::AstTypeOrPack, std::allocator<Luau::AstTypeOrPack>>::_Vector_impl" }
%"struct.std::_Vector_base<Luau::AstTypeOrPack, std::allocator<Luau::AstTypeOrPack>>::_Vector_impl" = type { %"struct.std::_Vector_base<Luau::AstTypeOrPack, std::allocator<Luau::AstTypeOrPack>>::_Vector_impl_data" }
%"struct.std::_Vector_base<Luau::AstTypeOrPack, std::allocator<Luau::AstTypeOrPack>>::_Vector_impl_data" = type { ptr, ptr, ptr }
%"class.std::vector.90" = type { %"struct.std::_Vector_base.91" }
%"struct.std::_Vector_base.91" = type { %"struct.std::_Vector_base<Luau::AstDeclaredClassProp, std::allocator<Luau::AstDeclaredClassProp>>::_Vector_impl" }
%"struct.std::_Vector_base<Luau::AstDeclaredClassProp, std::allocator<Luau::AstDeclaredClassProp>>::_Vector_impl" = type { %"struct.std::_Vector_base<Luau::AstDeclaredClassProp, std::allocator<Luau::AstDeclaredClassProp>>::_Vector_impl_data" }
%"struct.std::_Vector_base<Luau::AstDeclaredClassProp, std::allocator<Luau::AstDeclaredClassProp>>::_Vector_impl_data" = type { ptr, ptr, ptr }
%"class.std::vector.95" = type { %"struct.std::_Vector_base.96" }
%"struct.std::_Vector_base.96" = type { %"struct.std::_Vector_base<Luau::AstExprTable::Item, std::allocator<Luau::AstExprTable::Item>>::_Vector_impl" }
%"struct.std::_Vector_base<Luau::AstExprTable::Item, std::allocator<Luau::AstExprTable::Item>>::_Vector_impl" = type { %"struct.std::_Vector_base<Luau::AstExprTable::Item, std::allocator<Luau::AstExprTable::Item>>::_Vector_impl_data" }
%"struct.std::_Vector_base<Luau::AstExprTable::Item, std::allocator<Luau::AstExprTable::Item>>::_Vector_impl_data" = type { ptr, ptr, ptr }
%"class.std::vector.100" = type { %"struct.std::_Vector_base.101" }
%"struct.std::_Vector_base.101" = type { %"struct.std::_Vector_base<Luau::CstExprTable::Item, std::allocator<Luau::CstExprTable::Item>>::_Vector_impl" }
%"struct.std::_Vector_base<Luau::CstExprTable::Item, std::allocator<Luau::CstExprTable::Item>>::_Vector_impl" = type { %"struct.std::_Vector_base<Luau::CstExprTable::Item, std::allocator<Luau::CstExprTable::Item>>::_Vector_impl_data" }
%"struct.std::_Vector_base<Luau::CstExprTable::Item, std::allocator<Luau::CstExprTable::Item>>::_Vector_impl_data" = type { ptr, ptr, ptr }
%"class.std::vector.105" = type { %"struct.std::_Vector_base.106" }
%"struct.std::_Vector_base.106" = type { %"struct.std::_Vector_base<std::pair<Luau::AstName, Luau::Location>, std::allocator<std::pair<Luau::AstName, Luau::Location>>>::_Vector_impl" }
%"struct.std::_Vector_base<std::pair<Luau::AstName, Luau::Location>, std::allocator<std::pair<Luau::AstName, Luau::Location>>>::_Vector_impl" = type { %"struct.std::_Vector_base<std::pair<Luau::AstName, Luau::Location>, std::allocator<std::pair<Luau::AstName, Luau::Location>>>::_Vector_impl_data" }
%"struct.std::_Vector_base<std::pair<Luau::AstName, Luau::Location>, std::allocator<std::pair<Luau::AstName, Luau::Location>>>::_Vector_impl_data" = type { ptr, ptr, ptr }
%"class.std::vector.110" = type { %"struct.std::_Vector_base.111" }
%"struct.std::_Vector_base.111" = type { %"struct.std::_Vector_base<Luau::AstGenericType *, std::allocator<Luau::AstGenericType *>>::_Vector_impl" }
%"struct.std::_Vector_base<Luau::AstGenericType *, std::allocator<Luau::AstGenericType *>>::_Vector_impl" = type { %"struct.std::_Vector_base<Luau::AstGenericType *, std::allocator<Luau::AstGenericType *>>::_Vector_impl_data" }
%"struct.std::_Vector_base<Luau::AstGenericType *, std::allocator<Luau::AstGenericType *>>::_Vector_impl_data" = type { ptr, ptr, ptr }
%"class.std::vector.115" = type { %"struct.std::_Vector_base.116" }
%"struct.std::_Vector_base.116" = type { %"struct.std::_Vector_base<Luau::AstGenericTypePack *, std::allocator<Luau::AstGenericTypePack *>>::_Vector_impl" }
%"struct.std::_Vector_base<Luau::AstGenericTypePack *, std::allocator<Luau::AstGenericTypePack *>>::_Vector_impl" = type { %"struct.std::_Vector_base<Luau::AstGenericTypePack *, std::allocator<Luau::AstGenericTypePack *>>::_Vector_impl_data" }
%"struct.std::_Vector_base<Luau::AstGenericTypePack *, std::allocator<Luau::AstGenericTypePack *>>::_Vector_impl_data" = type { ptr, ptr, ptr }
%"class.std::vector.120" = type { %"struct.std::_Vector_base.121" }
%"struct.std::_Vector_base.121" = type { %"struct.std::_Vector_base<std::optional<std::pair<Luau::AstName, Luau::Location>>, std::allocator<std::optional<std::pair<Luau::AstName, Luau::Location>>>>::_Vector_impl" }
%"struct.std::_Vector_base<std::optional<std::pair<Luau::AstName, Luau::Location>>, std::allocator<std::optional<std::pair<Luau::AstName, Luau::Location>>>>::_Vector_impl" = type { %"struct.std::_Vector_base<std::optional<std::pair<Luau::AstName, Luau::Location>>, std::allocator<std::optional<std::pair<Luau::AstName, Luau::Location>>>>::_Vector_impl_data" }
%"struct.std::_Vector_base<std::optional<std::pair<Luau::AstName, Luau::Location>>, std::allocator<std::optional<std::pair<Luau::AstName, Luau::Location>>>>::_Vector_impl_data" = type { ptr, ptr, ptr }
%"class.std::vector.125" = type { %"struct.std::_Vector_base.126" }
%"struct.std::_Vector_base.126" = type { %"struct.std::_Vector_base<Luau::Position, std::allocator<Luau::Position>>::_Vector_impl" }
%"struct.std::_Vector_base<Luau::Position, std::allocator<Luau::Position>>::_Vector_impl" = type { %"struct.std::_Vector_base<Luau::Position, std::allocator<Luau::Position>>::_Vector_impl_data" }
%"struct.std::_Vector_base<Luau::Position, std::allocator<Luau::Position>>::_Vector_impl_data" = type { ptr, ptr, ptr }
%"struct.Luau::AstArray.179" = type { ptr, i64 }

; Function Attrs: mustprogress uwtable
define linkonce_odr dso_local noundef ptr @_ZN4Luau9Allocator5allocINS_12AstTypeErrorEJRKNS_8LocationENS_8AstArrayIPNS_7AstTypeEEEbjEEEPT_DpOT0_(ptr noundef nonnull align 8 dereferenceable(16) %0, ptr noundef nonnull align 4 dereferenceable(16) %1, ptr noundef nonnull align 8 dereferenceable(16) %2, ptr noundef nonnull align 1 dereferenceable(1) %3, ptr noundef nonnull align 4 dereferenceable(4) %4) #3 comdat align 2 {
  %6 = alloca ptr, align 8
  %7 = alloca ptr, align 8
  %8 = alloca ptr, align 8
  %9 = alloca ptr, align 8
  %10 = alloca ptr, align 8
  %11 = alloca ptr, align 8
  store ptr %0, ptr %6, align 8, !tbaa !52
  store ptr %1, ptr %7, align 8, !tbaa !31
  store ptr %2, ptr %8, align 8, !tbaa !627
  store ptr %3, ptr %9, align 8, !tbaa !485
  store ptr %4, ptr %10, align 8, !tbaa !299
  %12 = load ptr, ptr %6, align 8
  call void @llvm.lifetime.start.p0(i64 8, ptr %11) #23
  %13 = call noundef ptr @_ZN4Luau9Allocator8allocateEm(ptr noundef nonnull align 8 dereferenceable(16) %12, i64 noundef 56)
  store ptr %13, ptr %11, align 8, !tbaa !946
  %14 = load ptr, ptr %11, align 8, !tbaa !946
  %15 = load ptr, ptr %7, align 8, !tbaa !31
  %16 = load ptr, ptr %8, align 8, !tbaa !627
  %17 = load ptr, ptr %9, align 8, !tbaa !485
  %18 = load i8, ptr %17, align 1, !tbaa !13, !range !17, !noundef !18
  %19 = trunc i8 %18 to i1
  %20 = load ptr, ptr %10, align 8, !tbaa !299
  %21 = load i32, ptr %20, align 4, !tbaa !4
  call void @_ZN4Luau12AstTypeErrorC1ERKNS_8LocationERKNS_8AstArrayIPNS_7AstTypeEEEbj(ptr noundef nonnull align 8 dereferenceable(56) %14, ptr noundef nonnull align 4 dereferenceable(16) %15, ptr noundef nonnull align 8 dereferenceable(16) %16, i1 noundef zeroext %19, i32 noundef %21)
  %22 = load ptr, ptr %11, align 8, !tbaa !946
  call void @llvm.lifetime.end.p0(i64 8, ptr %11) #23
  ret ptr %22
}

; Function Attrs: mustprogress nounwind uwtable
define linkonce_odr dso_local noundef i64 @_ZNKSt6vectorIN4Luau10ParseErrorESaIS1_EE4sizeEv(ptr noundef nonnull align 8 dereferenceable(24) %0) #2 comdat align 2 {
  %2 = alloca ptr, align 8
  store ptr %0, ptr %2, align 8, !tbaa !42
  %3 = load ptr, ptr %2, align 8
  %4 = getelementptr inbounds nuw %"struct.std::_Vector_base", ptr %3, i32 0, i32 0
  %5 = getelementptr inbounds nuw %"struct.std::_Vector_base<Luau::ParseError, std::allocator<Luau::ParseError>>::_Vector_impl_data", ptr %4, i32 0, i32 1
  %6 = load ptr, ptr %5, align 8, !tbaa !44
  %7 = getelementptr inbounds nuw %"struct.std::_Vector_base", ptr %3, i32 0, i32 0
  %8 = getelementptr inbounds nuw %"struct.std::_Vector_base<Luau::ParseError, std::allocator<Luau::ParseError>>::_Vector_impl_data", ptr %7, i32 0, i32 0
  %9 = load ptr, ptr %8, align 8, !tbaa !46
  %10 = ptrtoint ptr %6 to i64
  %11 = ptrtoint ptr %9 to i64
  %12 = sub i64 %10, %11
  %13 = sdiv exact i64 %12, 56
  ret i64 %13
}

; Function Attrs: mustprogress uwtable
define dso_local noundef ptr @_ZN4Luau6Parser22reportMissingTypeErrorERKNS_8LocationES3_PKcz(ptr noundef nonnull align 8 dereferenceable(1072) %0, ptr noundef nonnull align 4 dereferenceable(16) %1, ptr noundef nonnull align 4 dereferenceable(16) %2, ptr noundef %3, ...) #3 align 2 {
  %5 = alloca ptr, align 8
  %6 = alloca ptr, align 8
  %7 = alloca ptr, align 8
  %8 = alloca ptr, align 8
  %9 = alloca [1 x %struct.__va_list_tag], align 16
  %10 = alloca %"struct.Luau::AstArray.179", align 8
  %11 = alloca i8, align 1
  %12 = alloca i32, align 4
  store ptr %0, ptr %5, align 8, !tbaa !85
  store ptr %1, ptr %6, align 8, !tbaa !31
  store ptr %2, ptr %7, align 8, !tbaa !31
  store ptr %3, ptr %8, align 8, !tbaa !11
  %13 = load ptr, ptr %5, align 8
  call void @llvm.lifetime.start.p0(i64 24, ptr %9) #23
  %14 = getelementptr inbounds [1 x %struct.__va_list_tag], ptr %9, i64 0, i64 0
  call void @llvm.va_start.p0(ptr %14)
  %15 = load ptr, ptr %6, align 8, !tbaa !31
  %16 = load ptr, ptr %8, align 8, !tbaa !11
  %17 = getelementptr inbounds [1 x %struct.__va_list_tag], ptr %9, i64 0, i64 0
  call void @_ZN4Luau6Parser6reportERKNS_8LocationEPKcP13__va_list_tag(ptr noundef nonnull align 8 dereferenceable(1072) %13, ptr noundef nonnull align 4 dereferenceable(16) %15, ptr noundef %16, ptr noundef %17)
  %18 = getelementptr inbounds [1 x %struct.__va_list_tag], ptr %9, i64 0, i64 0
  call void @llvm.va_end.p0(ptr %18)
  %19 = getelementptr inbounds nuw %"class.Luau::Parser", ptr %13, i32 0, i32 2
  %20 = load ptr, ptr %19, align 8, !tbaa !363
  %21 = load ptr, ptr %7, align 8, !tbaa !31
  call void @llvm.lifetime.start.p0(i64 16, ptr %10) #23
  %22 = getelementptr inbounds nuw %"struct.Luau::AstArray.179", ptr %10, i32 0, i32 0
  store ptr null, ptr %22, align 8, !tbaa !602
  %23 = getelementptr inbounds nuw %"struct.Luau::AstArray.179", ptr %10, i32 0, i32 1
  store i64 0, ptr %23, align 8, !tbaa !603
  call void @llvm.lifetime.start.p0(i64 1, ptr %11) #23
  store i8 1, ptr %11, align 1, !tbaa !13
  call void @llvm.lifetime.start.p0(i64 4, ptr %12) #23
  %24 = getelementptr inbounds nuw %"class.Luau::Parser", ptr %13, i32 0, i32 16
  %25 = call noundef i64 @_ZNKSt6vectorIN4Luau10ParseErrorESaIS1_EE4sizeEv(ptr noundef nonnull align 8 dereferenceable(24) %24) #23
  %26 = sub i64 %25, 1
  %27 = trunc i64 %26 to i32
  store i32 %27, ptr %12, align 4, !tbaa !4
  %28 = call noundef ptr @_ZN4Luau9Allocator5allocINS_12AstTypeErrorEJRKNS_8LocationENS_8AstArrayIPNS_7AstTypeEEEbjEEEPT_DpOT0_(ptr noundef nonnull align 8 dereferenceable(16) %20, ptr noundef nonnull align 4 dereferenceable(16) %21, ptr noundef nonnull align 8 dereferenceable(16) %10, ptr noundef nonnull align 1 dereferenceable(1) %11, ptr noundef nonnull align 4 dereferenceable(4) %12)
  call void @llvm.lifetime.end.p0(i64 4, ptr %12) #23
  call void @llvm.lifetime.end.p0(i64 1, ptr %11) #23
  call void @llvm.lifetime.end.p0(i64 16, ptr %10) #23
  call void @llvm.lifetime.end.p0(i64 24, ptr %9) #23
  ret ptr %28
}