; Function Attrs: mustprogress uwtable
define dso_local noundef ptr @_ZN4Luau6Parser22reportMissingTypeErrorERKNS_8LocationES3_PKcz(ptr noundef nonnull align 8 dereferenceable(1072) %0, ptr noundef nonnull align 4 dereferenceable(16) %1, ptr noundef nonnull align 4 dereferenceable(16) %2, ptr noundef %3, ...) local_unnamed_addr #2 align 2 {
  %5 = alloca [1 x %struct.__va_list_tag], align 16
  %6 = alloca %"struct.Luau::AstArray.179", align 8
  call void @llvm.lifetime.start.p0(i64 24, ptr nonnull %5) #29
  call void @llvm.va_start.p0(ptr nonnull %5)
  call void @_ZN4Luau6Parser6reportERKNS_8LocationEPKcP13__va_list_tag(ptr noundef nonnull align 8 dereferenceable(1072) %0, ptr noundef nonnull align 4 dereferenceable(16) %1, ptr noundef %3, ptr noundef nonnull %5)
  call void @llvm.va_end.p0(ptr nonnull %5)
  %7 = getelementptr inbounds nuw i8, ptr %0, i64 216
  %8 = load ptr, ptr %7, align 8, !tbaa !297
  call void @llvm.lifetime.start.p0(i64 16, ptr nonnull %6) #29
  %9 = getelementptr inbounds nuw i8, ptr %0, i64 424
  %10 = getelementptr inbounds nuw i8, ptr %0, i64 432
  call void @llvm.memset.p0.i64(ptr noundef nonnull align 8 dereferenceable(16) %6, i8 0, i64 16, i1 false)
  %11 = load ptr, ptr %10, align 8, !tbaa !24
  %12 = load ptr, ptr %9, align 8, !tbaa !21
  %13 = ptrtoint ptr %11 to i64
  %14 = ptrtoint ptr %12 to i64
  %15 = sub i64 %13, %14
  %16 = sdiv exact i64 %15, 56
  %17 = trunc i64 %16 to i32
  %18 = add i32 %17, -1
  %19 = call noundef ptr @_ZN4Luau9Allocator8allocateEm(ptr noundef nonnull align 8 dereferenceable(16) %8, i64 noundef 56)
  call void @_ZN4Luau12AstTypeErrorC1ERKNS_8LocationERKNS_8AstArrayIPNS_7AstTypeEEEbj(ptr noundef nonnull align 8 dereferenceable(56) %19, ptr noundef nonnull align 4 dereferenceable(16) %2, ptr noundef nonnull align 8 dereferenceable(16) %6, i1 noundef zeroext true, i32 noundef %18)
  call void @llvm.lifetime.end.p0(i64 16, ptr nonnull %6) #29
  call void @llvm.lifetime.end.p0(i64 24, ptr nonnull %5) #29
  ret ptr %19
}